ccopy_reg
_reconstructor
p1
(cmatplotlib.font_manager
FontManager
p2
c__builtin__
object
p3
NtRp4
(dp5
S'ttflist'
p6
(lp7
g1
(cmatplotlib.font_manager
FontEntry
p8
g3
NtRp9
(dp10
S'style'
p11
Vitalic
p12
sS'name'
p13
VSTIXGeneral
p14
sS'weight'
p15
I700
sS'stretch'
p16
Vnormal
p17
sS'variant'
p18
g17
sS'fname'
p19
V/opt/local/Library/Frameworks/Python.framework/Versions/2.7/lib/python2.7/site-packages/matplotlib/mpl-data/fonts/ttf/STIXGeneralBolIta.ttf
p20
sS'size'
p21
Vscalable
p22
sbag1
(g8
g3
NtRp23
(dp24
g11
g17
sg13
VDejaVu Sans Display
p25
sg15
I400
sg16
g17
sg18
g17
sg19
V/opt/local/Library/Frameworks/Python.framework/Versions/2.7/lib/python2.7/site-packages/matplotlib/mpl-data/fonts/ttf/DejaVuSansDisplay.ttf
p26
sg21
g22
sbag1
(g8
g3
NtRp27
(dp28
g11
Voblique
p29
sg13
VDejaVu Sans Mono
p30
sg15
I700
sg16
g17
sg18
g17
sg19
V/opt/local/Library/Frameworks/Python.framework/Versions/2.7/lib/python2.7/site-packages/matplotlib/mpl-data/fonts/ttf/DejaVuSansMono-BoldOblique.ttf
p31
sg21
g22
sbag1
(g8
g3
NtRp32
(dp33
g11
g17
sg13
VSTIXNonUnicode
p34
sg15
I700
sg16
g17
sg18
g17
sg19
V/opt/local/Library/Frameworks/Python.framework/Versions/2.7/lib/python2.7/site-packages/matplotlib/mpl-data/fonts/ttf/STIXNonUniBol.ttf
p35
sg21
g22
sbag1
(g8
g3
NtRp36
(dp37
g11
g17
sg13
VSTIXSizeThreeSym
p38
sg15
I400
sg16
g17
sg18
g17
sg19
V/opt/local/Library/Frameworks/Python.framework/Versions/2.7/lib/python2.7/site-packages/matplotlib/mpl-data/fonts/ttf/STIXSizThreeSymReg.ttf
p39
sg21
g22
sbag1
(g8
g3
NtRp40
(dp41
g11
g17
sg13
VDejaVu Sans Mono
p42
sg15
I400
sg16
g17
sg18
g17
sg19
V/opt/local/Library/Frameworks/Python.framework/Versions/2.7/lib/python2.7/site-packages/matplotlib/mpl-data/fonts/ttf/DejaVuSansMono.ttf
p43
sg21
g22
sbag1
(g8
g3
NtRp44
(dp45
g11
g12
sg13
VSTIXNonUnicode
p46
sg15
I400
sg16
g17
sg18
g17
sg19
V/opt/local/Library/Frameworks/Python.framework/Versions/2.7/lib/python2.7/site-packages/matplotlib/mpl-data/fonts/ttf/STIXNonUniIta.ttf
p47
sg21
g22
sbag1
(g8
g3
NtRp48
(dp49
g11
g17
sg13
VSTIXGeneral
p50
sg15
I400
sg16
g17
sg18
g17
sg19
V/opt/local/Library/Frameworks/Python.framework/Versions/2.7/lib/python2.7/site-packages/matplotlib/mpl-data/fonts/ttf/STIXGeneral.ttf
p51
sg21
g22
sbag1
(g8
g3
NtRp52
(dp53
g11
g17
sg13
VSTIXSizeOneSym
p54
sg15
I700
sg16
g17
sg18
g17
sg19
V/opt/local/Library/Frameworks/Python.framework/Versions/2.7/lib/python2.7/site-packages/matplotlib/mpl-data/fonts/ttf/STIXSizOneSymBol.ttf
p55
sg21
g22
sbag1
(g8
g3
NtRp56
(dp57
g11
g17
sg13
VSTIXSizeTwoSym
p58
sg15
I700
sg16
g17
sg18
g17
sg19
V/opt/local/Library/Frameworks/Python.framework/Versions/2.7/lib/python2.7/site-packages/matplotlib/mpl-data/fonts/ttf/STIXSizTwoSymBol.ttf
p59
sg21
g22
sbag1
(g8
g3
NtRp60
(dp61
g11
g17
sg13
Vcmss10
p62
sg15
I400
sg16
g17
sg18
g17
sg19
V/opt/local/Library/Frameworks/Python.framework/Versions/2.7/lib/python2.7/site-packages/matplotlib/mpl-data/fonts/ttf/cmss10.ttf
p63
sg21
g22
sbag1
(g8
g3
NtRp64
(dp65
g11
g17
sg13
VSTIXSizeThreeSym
p66
sg15
I700
sg16
g17
sg18
g17
sg19
V/opt/local/Library/Frameworks/Python.framework/Versions/2.7/lib/python2.7/site-packages/matplotlib/mpl-data/fonts/ttf/STIXSizThreeSymBol.ttf
p67
sg21
g22
sbag1
(g8
g3
NtRp68
(dp69
g11
g29
sg13
VDejaVu Sans
p70
sg15
I400
sg16
g17
sg18
g17
sg19
V/opt/local/Library/Frameworks/Python.framework/Versions/2.7/lib/python2.7/site-packages/matplotlib/mpl-data/fonts/ttf/DejaVuSans-Oblique.ttf
p71
sg21
g22
sbag1
(g8
g3
NtRp72
(dp73
g11
g17
sg13
VSTIXSizeFourSym
p74
sg15
I400
sg16
g17
sg18
g17
sg19
V/opt/local/Library/Frameworks/Python.framework/Versions/2.7/lib/python2.7/site-packages/matplotlib/mpl-data/fonts/ttf/STIXSizFourSymReg.ttf
p75
sg21
g22
sbag1
(g8
g3
NtRp76
(dp77
g11
g12
sg13
VSTIXNonUnicode
p78
sg15
I700
sg16
g17
sg18
g17
sg19
V/opt/local/Library/Frameworks/Python.framework/Versions/2.7/lib/python2.7/site-packages/matplotlib/mpl-data/fonts/ttf/STIXNonUniBolIta.ttf
p79
sg21
g22
sbag1
(g8
g3
NtRp80
(dp81
g11
g29
sg13
VDejaVu Sans
p82
sg15
I700
sg16
g17
sg18
g17
sg19
V/opt/local/Library/Frameworks/Python.framework/Versions/2.7/lib/python2.7/site-packages/matplotlib/mpl-data/fonts/ttf/DejaVuSans-BoldOblique.ttf
p83
sg21
g22
sbag1
(g8
g3
NtRp84
(dp85
g11
g17
sg13
VDejaVu Sans Mono
p86
sg15
I700
sg16
g17
sg18
g17
sg19
V/opt/local/Library/Frameworks/Python.framework/Versions/2.7/lib/python2.7/site-packages/matplotlib/mpl-data/fonts/ttf/DejaVuSansMono-Bold.ttf
p87
sg21
g22
sbag1
(g8
g3
NtRp88
(dp89
g11
g17
sg13
Vcmmi10
p90
sg15
I400
sg16
g17
sg18
g17
sg19
V/opt/local/Library/Frameworks/Python.framework/Versions/2.7/lib/python2.7/site-packages/matplotlib/mpl-data/fonts/ttf/cmmi10.ttf
p91
sg21
g22
sbag1
(g8
g3
NtRp92
(dp93
g11
g12
sg13
VSTIXGeneral
p94
sg15
I400
sg16
g17
sg18
g17
sg19
V/opt/local/Library/Frameworks/Python.framework/Versions/2.7/lib/python2.7/site-packages/matplotlib/mpl-data/fonts/ttf/STIXGeneralItalic.ttf
p95
sg21
g22
sbag1
(g8
g3
NtRp96
(dp97
g11
g17
sg13
Vcmex10
p98
sg15
I400
sg16
g17
sg18
g17
sg19
V/opt/local/Library/Frameworks/Python.framework/Versions/2.7/lib/python2.7/site-packages/matplotlib/mpl-data/fonts/ttf/cmex10.ttf
p99
sg21
g22
sbag1
(g8
g3
NtRp100
(dp101
g11
g17
sg13
Vcmsy10
p102
sg15
I400
sg16
g17
sg18
g17
sg19
V/opt/local/Library/Frameworks/Python.framework/Versions/2.7/lib/python2.7/site-packages/matplotlib/mpl-data/fonts/ttf/cmsy10.ttf
p103
sg21
g22
sbag1
(g8
g3
NtRp104
(dp105
g11
g12
sg13
VDejaVu Serif
p106
sg15
I700
sg16
g17
sg18
g17
sg19
V/opt/local/Library/Frameworks/Python.framework/Versions/2.7/lib/python2.7/site-packages/matplotlib/mpl-data/fonts/ttf/DejaVuSerif-BoldItalic.ttf
p107
sg21
g22
sbag1
(g8
g3
NtRp108
(dp109
g11
g17
sg13
VSTIXSizeOneSym
p110
sg15
I400
sg16
g17
sg18
g17
sg19
V/opt/local/Library/Frameworks/Python.framework/Versions/2.7/lib/python2.7/site-packages/matplotlib/mpl-data/fonts/ttf/STIXSizOneSymReg.ttf
p111
sg21
g22
sbag1
(g8
g3
NtRp112
(dp113
g11
g17
sg13
Vcmb10
p114
sg15
I400
sg16
g17
sg18
g17
sg19
V/opt/local/Library/Frameworks/Python.framework/Versions/2.7/lib/python2.7/site-packages/matplotlib/mpl-data/fonts/ttf/cmb10.ttf
p115
sg21
g22
sbag1
(g8
g3
NtRp116
(dp117
g11
g17
sg13
VDejaVu Serif
p118
sg15
I400
sg16
g17
sg18
g17
sg19
V/opt/local/Library/Frameworks/Python.framework/Versions/2.7/lib/python2.7/site-packages/matplotlib/mpl-data/fonts/ttf/DejaVuSerif.ttf
p119
sg21
g22
sbag1
(g8
g3
NtRp120
(dp121
g11
g17
sg13
VSTIXSizeFourSym
p122
sg15
I700
sg16
g17
sg18
g17
sg19
V/opt/local/Library/Frameworks/Python.framework/Versions/2.7/lib/python2.7/site-packages/matplotlib/mpl-data/fonts/ttf/STIXSizFourSymBol.ttf
p123
sg21
g22
sbag1
(g8
g3
NtRp124
(dp125
g11
g17
sg13
VSTIXNonUnicode
p126
sg15
I400
sg16
g17
sg18
g17
sg19
V/opt/local/Library/Frameworks/Python.framework/Versions/2.7/lib/python2.7/site-packages/matplotlib/mpl-data/fonts/ttf/STIXNonUni.ttf
p127
sg21
g22
sbag1
(g8
g3
NtRp128
(dp129
g11
g17
sg13
VDejaVu Serif
p130
sg15
I700
sg16
g17
sg18
g17
sg19
V/opt/local/Library/Frameworks/Python.framework/Versions/2.7/lib/python2.7/site-packages/matplotlib/mpl-data/fonts/ttf/DejaVuSerif-Bold.ttf
p131
sg21
g22
sbag1
(g8
g3
NtRp132
(dp133
g11
g17
sg13
VSTIXSizeTwoSym
p134
sg15
I400
sg16
g17
sg18
g17
sg19
V/opt/local/Library/Frameworks/Python.framework/Versions/2.7/lib/python2.7/site-packages/matplotlib/mpl-data/fonts/ttf/STIXSizTwoSymReg.ttf
p135
sg21
g22
sbag1
(g8
g3
NtRp136
(dp137
g11
g29
sg13
VDejaVu Sans Mono
p138
sg15
I400
sg16
g17
sg18
g17
sg19
V/opt/local/Library/Frameworks/Python.framework/Versions/2.7/lib/python2.7/site-packages/matplotlib/mpl-data/fonts/ttf/DejaVuSansMono-Oblique.ttf
p139
sg21
g22
sbag1
(g8
g3
NtRp140
(dp141
g11
g17
sg13
VDejaVu Sans
p142
sg15
I400
sg16
g17
sg18
g17
sg19
V/opt/local/Library/Frameworks/Python.framework/Versions/2.7/lib/python2.7/site-packages/matplotlib/mpl-data/fonts/ttf/DejaVuSans.ttf
p143
sg21
g22
sbag1
(g8
g3
NtRp144
(dp145
g11
g17
sg13
VDejaVu Serif Display
p146
sg15
I400
sg16
g17
sg18
g17
sg19
V/opt/local/Library/Frameworks/Python.framework/Versions/2.7/lib/python2.7/site-packages/matplotlib/mpl-data/fonts/ttf/DejaVuSerifDisplay.ttf
p147
sg21
g22
sbag1
(g8
g3
NtRp148
(dp149
g11
g12
sg13
VDejaVu Serif
p150
sg15
I400
sg16
g17
sg18
g17
sg19
V/opt/local/Library/Frameworks/Python.framework/Versions/2.7/lib/python2.7/site-packages/matplotlib/mpl-data/fonts/ttf/DejaVuSerif-Italic.ttf
p151
sg21
g22
sbag1
(g8
g3
NtRp152
(dp153
g11
g17
sg13
Vcmtt10
p154
sg15
I400
sg16
g17
sg18
g17
sg19
V/opt/local/Library/Frameworks/Python.framework/Versions/2.7/lib/python2.7/site-packages/matplotlib/mpl-data/fonts/ttf/cmtt10.ttf
p155
sg21
g22
sbag1
(g8
g3
NtRp156
(dp157
g11
g17
sg13
VSTIXGeneral
p158
sg15
I700
sg16
g17
sg18
g17
sg19
V/opt/local/Library/Frameworks/Python.framework/Versions/2.7/lib/python2.7/site-packages/matplotlib/mpl-data/fonts/ttf/STIXGeneralBol.ttf
p159
sg21
g22
sbag1
(g8
g3
NtRp160
(dp161
g11
g17
sg13
Vcmr10
p162
sg15
I400
sg16
g17
sg18
g17
sg19
V/opt/local/Library/Frameworks/Python.framework/Versions/2.7/lib/python2.7/site-packages/matplotlib/mpl-data/fonts/ttf/cmr10.ttf
p163
sg21
g22
sbag1
(g8
g3
NtRp164
(dp165
g11
g17
sg13
VDejaVu Sans
p166
sg15
I700
sg16
g17
sg18
g17
sg19
V/opt/local/Library/Frameworks/Python.framework/Versions/2.7/lib/python2.7/site-packages/matplotlib/mpl-data/fonts/ttf/DejaVuSans-Bold.ttf
p167
sg21
g22
sbag1
(g8
g3
NtRp168
(dp169
g11
g17
sg13
VSTIXSizeFiveSym
p170
sg15
I400
sg16
g17
sg18
g17
sg19
V/opt/local/Library/Frameworks/Python.framework/Versions/2.7/lib/python2.7/site-packages/matplotlib/mpl-data/fonts/ttf/STIXSizFiveSymReg.ttf
p171
sg21
g22
sbag1
(g8
g3
NtRp172
(dp173
g11
g12
sg13
VTrebuchet MS
p174
sg15
I400
sg16
g17
sg18
g17
sg19
V/Library/Fonts/Trebuchet MS Italic.ttf
p175
sg21
g22
sbag1
(g8
g3
NtRp176
(dp177
g11
g17
sg13
VHoefler Text
p178
sg15
I400
sg16
g17
sg18
g17
sg19
V/Library/Fonts/Hoefler Text Ornaments.ttf
p179
sg21
g22
sbag1
(g8
g3
NtRp180
(dp181
g11
g17
sg13
VMshtakan
p182
sg15
I400
sg16
g17
sg18
g17
sg19
V/Library/Fonts/MshtakanRegular.ttf
p183
sg21
g22
sbag1
(g8
g3
NtRp184
(dp185
g11
g17
sg13
VOsaka
p186
sg15
I400
sg16
g17
sg18
g17
sg19
V/Library/Fonts/Osaka.ttf
p187
sg21
g22
sbag1
(g8
g3
NtRp188
(dp189
g11
g17
sg13
VHiragino Mincho Pro
p190
sg15
I400
sg16
g17
sg18
g17
sg19
V/Library/Fonts/\u30d2\u30e9\u30ad\u3099\u30ce\u660e\u671d Pro W3.otf
p191
sg21
g22
sbag1
(g8
g3
NtRp192
(dp193
g11
g17
sg13
VVerdana
p194
sg15
I700
sg16
g17
sg18
g17
sg19
V/Library/Fonts/Verdana Bold.ttf
p195
sg21
g22
sbag1
(g8
g3
NtRp196
(dp197
g11
g17
sg13
VApple SD Gothic Neo
p198
sg15
I200
sg16
g17
sg18
g17
sg19
V/Library/Fonts/AppleSDGothicNeo-UltraLight.otf
p199
sg21
g22
sbag1
(g8
g3
NtRp200
(dp201
g11
g17
sg13
VArial Unicode MS
p202
sg15
I400
sg16
g17
sg18
g17
sg19
V/Library/Fonts/Arial Unicode.ttf
p203
sg21
g22
sbag1
(g8
g3
NtRp204
(dp205
g11
g17
sg13
VSTIXSizeThreeSym
p206
sg15
I400
sg16
g17
sg18
g17
sg19
V/Library/Fonts/STIXSizThreeSymReg.otf
p207
sg21
g22
sbag1
(g8
g3
NtRp208
(dp209
g11
g17
sg13
VDIN Condensed
p210
sg15
I700
sg16
Vcondensed
p211
sg18
g17
sg19
V/Library/Fonts/DIN Condensed Bold.ttf
p212
sg21
g22
sbag1
(g8
g3
NtRp213
(dp214
g11
g17
sg13
VHiragino Mincho ProN
p215
sg15
I400
sg16
g17
sg18
g17
sg19
V/System/Library/Fonts/\u30d2\u30e9\u30ad\u3099\u30ce\u660e\u671d ProN W3.otf
p216
sg21
g22
sbag1
(g8
g3
NtRp217
(dp218
g11
g17
sg13
VTimes New Roman
p219
sg15
I500
sg16
g17
sg18
g17
sg19
V/Library/Fonts/Times New Roman.ttf
p220
sg21
g22
sbag1
(g8
g3
NtRp221
(dp222
g11
g17
sg13
VLiSong Pro
p223
sg15
I400
sg16
g17
sg18
g17
sg19
V/Library/Fonts/\u5137\u5b8b Pro.ttf
p224
sg21
g22
sbag1
(g8
g3
NtRp225
(dp226
g11
g17
sg13
VApple SD Gothic Neo
p227
sg15
I800
sg16
g17
sg18
g17
sg19
V/Library/Fonts/AppleSDGothicNeo-Heavy.otf
p228
sg21
g22
sbag1
(g8
g3
NtRp229
(dp230
g11
g17
sg13
VArial
p231
sg15
I400
sg16
g17
sg18
g17
sg19
V/Library/Fonts/Arial.ttf
p232
sg21
g22
sbag1
(g8
g3
NtRp233
(dp234
g11
g17
sg13
VAppleGothic
p235
sg15
I400
sg16
g17
sg18
g17
sg19
V/Library/Fonts/AppleGothic.ttf
p236
sg21
g22
sbag1
(g8
g3
NtRp237
(dp238
g11
g17
sg13
VYuGothic
p239
sg15
I400
sg16
g17
sg18
g17
sg19
V/Library/Fonts/Yu Gothic Medium.otf
p240
sg21
g22
sbag1
(g8
g3
NtRp241
(dp242
g11
g17
sg13
VGujarati MT
p243
sg15
I700
sg16
g17
sg18
g17
sg19
V/Library/Fonts/GujaratiMTBold.ttf
p244
sg21
g22
sbag1
(g8
g3
NtRp245
(dp246
g11
g17
sg13
VArial Narrow
p247
sg15
I400
sg16
g211
sg18
g17
sg19
V/Library/Fonts/Arial Narrow.ttf
p248
sg21
g22
sbag1
(g8
g3
NtRp249
(dp250
g11
g17
sg13
VApple SD Gothic Neo
p251
sg15
I700
sg16
g17
sg18
g17
sg19
V/System/Library/Fonts/AppleSDGothicNeo-Bold.otf
p252
sg21
g22
sbag1
(g8
g3
NtRp253
(dp254
g11
g17
sg13
VHiragino Maru Gothic ProN
p255
sg15
I400
sg16
g17
sg18
g17
sg19
V/Library/Fonts/\u30d2\u30e9\u30ad\u3099\u30ce\u4e38\u30b3\u3099 ProN W4.otf
p256
sg21
g22
sbag1
(g8
g3
NtRp257
(dp258
g11
g29
sg13
VMshtakan
p259
sg15
I400
sg16
g17
sg18
g17
sg19
V/Library/Fonts/MshtakanOblique.ttf
p260
sg21
g22
sbag1
(g8
g3
NtRp261
(dp262
g11
g17
sg13
VHiragino Mincho Pro
p263
sg15
I700
sg16
g17
sg18
g17
sg19
V/Library/Fonts/\u30d2\u30e9\u30ad\u3099\u30ce\u660e\u671d Pro W6.otf
p264
sg21
g22
sbag1
(g8
g3
NtRp265
(dp266
g11
g17
sg13
VAppleMyungjo
p267
sg15
I400
sg16
g17
sg18
g17
sg19
V/Library/Fonts/AppleMyungjo.ttf
p268
sg21
g22
sbag1
(g8
g3
NtRp269
(dp270
g11
g17
sg13
VMishafi Gold
p271
sg15
I400
sg16
g17
sg18
g17
sg19
V/Library/Fonts/Mishafi Gold.ttf
p272
sg21
g22
sbag1
(g8
g3
NtRp273
(dp274
g11
g17
sg13
VZapf Dingbats
p275
sg15
I400
sg16
g17
sg18
g17
sg19
V/System/Library/Fonts/ZapfDingbats.ttf
p276
sg21
g22
sbag1
(g8
g3
NtRp277
(dp278
g11
g17
sg13
VSTIXIntegralsD
p279
sg15
I700
sg16
g17
sg18
g17
sg19
V/Library/Fonts/STIXIntDBol.otf
p280
sg21
g22
sbag1
(g8
g3
NtRp281
(dp282
g11
g17
sg13
VDIN Alternate
p283
sg15
I700
sg16
g17
sg18
g17
sg19
V/Library/Fonts/DIN Alternate Bold.ttf
p284
sg21
g22
sbag1
(g8
g3
NtRp285
(dp286
g11
g17
sg13
VMyanmar Sangam MN
p287
sg15
I400
sg16
g17
sg18
g17
sg19
V/Library/Fonts/Myanmar Sangam MN.ttf
p288
sg21
g22
sbag1
(g8
g3
NtRp289
(dp290
g11
g17
sg13
VSTIXSizeThreeSym
p291
sg15
I700
sg16
g17
sg18
g17
sg19
V/Library/Fonts/STIXSizThreeSymBol.otf
p292
sg21
g22
sbag1
(g8
g3
NtRp293
(dp294
g11
g17
sg13
VCourier New
p295
sg15
I400
sg16
g17
sg18
g17
sg19
V/Library/Fonts/Courier New.ttf
p296
sg21
g22
sbag1
(g8
g3
NtRp297
(dp298
g11
g12
sg13
VArial Narrow
p299
sg15
I700
sg16
g211
sg18
g17
sg19
V/Library/Fonts/Arial Narrow Bold Italic.ttf
p300
sg21
g22
sbag1
(g8
g3
NtRp301
(dp302
g11
g17
sg13
VLuminari
p303
sg15
I400
sg16
g17
sg18
g17
sg19
V/Library/Fonts/Luminari.ttf
p304
sg21
g22
sbag1
(g8
g3
NtRp305
(dp306
g11
g17
sg13
VZapfino
p307
sg15
I400
sg16
g17
sg18
g17
sg19
V/Library/Fonts/Zapfino.ttf
p308
sg21
g22
sbag1
(g8
g3
NtRp309
(dp310
g11
g17
sg13
VArial Narrow
p311
sg15
I700
sg16
g211
sg18
g17
sg19
V/Library/Fonts/Arial Narrow Bold.ttf
p312
sg21
g22
sbag1
(g8
g3
NtRp313
(dp314
g11
g12
sg13
VTimes New Roman
p315
sg15
I500
sg16
g17
sg18
g17
sg19
V/Library/Fonts/Times New Roman Italic.ttf
p316
sg21
g22
sbag1
(g8
g3
NtRp317
(dp318
g11
g17
sg13
VKrungthep
p319
sg15
I400
sg16
g17
sg18
g17
sg19
V/Library/Fonts/Krungthep.ttf
p320
sg21
g22
sbag1
(g8
g3
NtRp321
(dp322
g11
g17
sg13
VApple SD Gothic Neo
p323
sg15
I700
sg16
g17
sg18
g17
sg19
V/Library/Fonts/AppleSDGothicNeo-ExtraBold.otf
p324
sg21
g22
sbag1
(g8
g3
NtRp325
(dp326
g11
g17
sg13
VGeorgia
p327
sg15
I400
sg16
g17
sg18
g17
sg19
V/Library/Fonts/Georgia.ttf
p328
sg21
g22
sbag1
(g8
g3
NtRp329
(dp330
g11
g17
sg13
VSTIXIntegralsSm
p331
sg15
I700
sg16
g17
sg18
g17
sg19
V/Library/Fonts/STIXIntSmBol.otf
p332
sg21
g22
sbag1
(g8
g3
NtRp333
(dp334
g11
g17
sg13
VDiwan Thuluth
p335
sg15
I400
sg16
g17
sg18
g17
sg19
V/Library/Fonts/Diwan Thuluth.ttf
p336
sg21
g22
sbag1
(g8
g3
NtRp337
(dp338
g11
g17
sg13
VTrebuchet MS
p339
sg15
I700
sg16
g17
sg18
g17
sg19
V/Library/Fonts/Trebuchet MS Bold.ttf
p340
sg21
g22
sbag1
(g8
g3
NtRp341
(dp342
g11
g17
sg13
VBradley Hand
p343
sg15
I700
sg16
g17
sg18
g17
sg19
V/Library/Fonts/Bradley Hand Bold.ttf
p344
sg21
g22
sbag1
(g8
g3
NtRp345
(dp346
g11
g12
sg13
VTimes New Roman
p347
sg15
I700
sg16
g17
sg18
g17
sg19
V/Library/Fonts/Times New Roman Bold Italic.ttf
p348
sg21
g22
sbag1
(g8
g3
NtRp349
(dp350
g11
g12
sg13
VArial Narrow
p351
sg15
I400
sg16
g211
sg18
g17
sg19
V/Library/Fonts/Arial Narrow Italic.ttf
p352
sg21
g22
sbag1
(g8
g3
NtRp353
(dp354
g11
g17
sg13
VHiragino Kaku Gothic Pro
p355
sg15
I700
sg16
g17
sg18
g17
sg19
V/Library/Fonts/\u30d2\u30e9\u30ad\u3099\u30ce\u89d2\u30b3\u3099 Pro W6.otf
p356
sg21
g22
sbag1
(g8
g3
NtRp357
(dp358
g11
g17
sg13
VHiragino Maru Gothic Pro
p359
sg15
I400
sg16
g17
sg18
g17
sg19
V/Library/Fonts/\u30d2\u30e9\u30ad\u3099\u30ce\u4e38\u30b3\u3099 Pro W4.otf
p360
sg21
g22
sbag1
(g8
g3
NtRp361
(dp362
g11
g17
sg13
VApple SD Gothic Neo
p363
sg15
I400
sg16
g17
sg18
g17
sg19
V/System/Library/Fonts/AppleSDGothicNeo-Regular.otf
p364
sg21
g22
sbag1
(g8
g3
NtRp365
(dp366
g11
g17
sg13
VPilGi
p367
sg15
I400
sg16
g17
sg18
g17
sg19
V/Library/Fonts/Pilgiche.ttf
p368
sg21
g22
sbag1
(g8
g3
NtRp369
(dp370
g11
g17
sg13
VApple Braille
p371
sg15
I400
sg16
g17
sg18
g17
sg19
V/System/Library/Fonts/Apple Braille Outline 8 Dot.ttf
p372
sg21
g22
sbag1
(g8
g3
NtRp373
(dp374
g11
g17
sg13
VPlantagenet Cherokee
p375
sg15
I400
sg16
g17
sg18
g17
sg19
V/Library/Fonts/PlantagenetCherokee.ttf
p376
sg21
g22
sbag1
(g8
g3
NtRp377
(dp378
g11
g17
sg13
VTimes New Roman
p379
sg15
I700
sg16
g17
sg18
g17
sg19
V/Library/Fonts/Times New Roman Bold.ttf
p380
sg21
g22
sbag1
(g8
g3
NtRp381
(dp382
g11
g12
sg13
VArial
p383
sg15
I700
sg16
g17
sg18
g17
sg19
V/Library/Fonts/Arial Bold Italic.ttf
p384
sg21
g22
sbag1
(g8
g3
NtRp385
(dp386
g11
g17
sg13
VHeadLineA
p387
sg15
I400
sg16
g17
sg18
g17
sg19
V/Library/Fonts/HeadlineA.ttf
p388
sg21
g22
sbag1
(g8
g3
NtRp389
(dp390
g11
g17
sg13
VHiragino Kaku Gothic Pro
p391
sg15
I400
sg16
g17
sg18
g17
sg19
V/Library/Fonts/\u30d2\u30e9\u30ad\u3099\u30ce\u89d2\u30b3\u3099 Pro W3.otf
p392
sg21
g22
sbag1
(g8
g3
NtRp393
(dp394
g11
g17
sg13
VSTIXVariants
p395
sg15
I400
sg16
g17
sg18
g17
sg19
V/Library/Fonts/STIXVar.otf
p396
sg21
g22
sbag1
(g8
g3
NtRp397
(dp398
g11
g17
sg13
VMishafi
p399
sg15
I400
sg16
g17
sg18
g17
sg19
V/Library/Fonts/Mishafi.ttf
p400
sg21
g22
sbag1
(g8
g3
NtRp401
(dp402
g11
g17
sg13
VSTIXVariants
p403
sg15
I700
sg16
g17
sg18
g17
sg19
V/Library/Fonts/STIXVarBol.otf
p404
sg21
g22
sbag1
(g8
g3
NtRp405
(dp406
g11
g17
sg13
VHiragino Sans GB
p407
sg15
I400
sg16
g17
sg18
g17
sg19
V/Library/Fonts/Hiragino Sans GB W3.otf
p408
sg21
g22
sbag1
(g8
g3
NtRp409
(dp410
g11
g17
sg13
VSTFangsong
p411
sg15
I400
sg16
g17
sg18
g17
sg19
V/Library/Fonts/\u534e\u6587\u4eff\u5b8b.ttf
p412
sg21
g22
sbag1
(g8
g3
NtRp413
(dp414
g11
g17
sg13
VMshtakan
p415
sg15
I700
sg16
g17
sg18
g17
sg19
V/Library/Fonts/MshtakanBold.ttf
p416
sg21
g22
sbag1
(g8
g3
NtRp417
(dp418
g11
g17
sg13
VSTHeiti
p419
sg15
I400
sg16
g17
sg18
g17
sg19
V/Library/Fonts/\u534e\u6587\u9ed1\u4f53.ttf
p420
sg21
g22
sbag1
(g8
g3
NtRp421
(dp422
g11
g17
sg13
VSTIXIntegralsUp
p423
sg15
I700
sg16
g17
sg18
g17
sg19
V/Library/Fonts/STIXIntUpBol.otf
p424
sg21
g22
sbag1
(g8
g3
NtRp425
(dp426
g11
g17
sg13
VWawati TC
p427
sg15
I400
sg16
g17
sg18
g17
sg19
V/Library/Fonts/WawaTC-Regular.otf
p428
sg21
g22
sbag1
(g8
g3
NtRp429
(dp430
g11
g17
sg13
VSkia
p431
sg15
I400
sg16
g17
sg18
g17
sg19
V/Library/Fonts/Skia.ttf
p432
sg21
g22
sbag1
(g8
g3
NtRp433
(dp434
g11
g17
sg13
VSTIXSizeFiveSym
p435
sg15
I400
sg16
g17
sg18
g17
sg19
V/Library/Fonts/STIXSizFiveSymReg.otf
p436
sg21
g22
sbag1
(g8
g3
NtRp437
(dp438
g11
g17
sg13
VVerdana
p439
sg15
I400
sg16
g17
sg18
g17
sg19
V/Library/Fonts/Verdana.ttf
p440
sg21
g22
sbag1
(g8
g3
NtRp441
(dp442
g11
g17
sg13
VFarisi
p443
sg15
I400
sg16
g17
sg18
g17
sg19
V/Library/Fonts/Farisi.ttf
p444
sg21
g22
sbag1
(g8
g3
NtRp445
(dp446
g11
g17
sg13
VGurmukhi MT
p447
sg15
I400
sg16
g17
sg18
g17
sg19
V/Library/Fonts/Gurmukhi.ttf
p448
sg21
g22
sbag1
(g8
g3
NtRp449
(dp450
g11
g17
sg13
VBodoni 72 Smallcaps
p451
sg15
I400
sg16
g17
sg18
g17
sg19
V/Library/Fonts/Bodoni 72 Smallcaps Book.ttf
p452
sg21
g22
sbag1
(g8
g3
NtRp453
(dp454
g11
g17
sg13
VYuGothic
p455
sg15
I700
sg16
g17
sg18
g17
sg19
V/Library/Fonts/Yu Gothic Bold.otf
p456
sg21
g22
sbag1
(g8
g3
NtRp457
(dp458
g11
g17
sg13
VYuMincho
p459
sg15
I700
sg16
g17
sg18
g17
sg19
V/Library/Fonts/Yu Mincho Demibold.otf
p460
sg21
g22
sbag1
(g8
g3
NtRp461
(dp462
g11
g12
sg13
VArial
p463
sg15
I400
sg16
g17
sg18
g17
sg19
V/Library/Fonts/Arial Italic.ttf
p464
sg21
g22
sbag1
(g8
g3
NtRp465
(dp466
g11
g12
sg13
VSTIXNonUnicode
p467
sg15
I700
sg16
g17
sg18
g17
sg19
V/Library/Fonts/STIXNonUniBolIta.otf
p468
sg21
g22
sbag1
(g8
g3
NtRp469
(dp470
g11
g17
sg13
VApple Braille
p471
sg15
I400
sg16
g17
sg18
g17
sg19
V/System/Library/Fonts/Apple Braille Pinpoint 8 Dot.ttf
p472
sg21
g22
sbag1
(g8
g3
NtRp473
(dp474
g11
g12
sg13
VGeorgia
p475
sg15
I400
sg16
g17
sg18
g17
sg19
V/Library/Fonts/Georgia Italic.ttf
p476
sg21
g22
sbag1
(g8
g3
NtRp477
(dp478
g11
g17
sg13
VApple Braille
p479
sg15
I400
sg16
g17
sg18
g17
sg19
V/System/Library/Fonts/Apple Braille Outline 6 Dot.ttf
p480
sg21
g22
sbag1
(g8
g3
NtRp481
(dp482
g11
g17
sg13
VChalkduster
p483
sg15
I400
sg16
g17
sg18
g17
sg19
V/Library/Fonts/Chalkduster.ttf
p484
sg21
g22
sbag1
(g8
g3
NtRp485
(dp486
g11
g12
sg13
VCourier New
p487
sg15
I700
sg16
g17
sg18
g17
sg19
V/Library/Fonts/Courier New Bold Italic.ttf
p488
sg21
g22
sbag1
(g8
g3
NtRp489
(dp490
g11
g17
sg13
VWawati SC
p491
sg15
I400
sg16
g17
sg18
g17
sg19
V/Library/Fonts/WawaSC-Regular.otf
p492
sg21
g22
sbag1
(g8
g3
NtRp493
(dp494
g11
g17
sg13
VArial Rounded MT Bold
p495
sg15
I700
sg16
g17
sg18
g17
sg19
V/Library/Fonts/Arial Rounded Bold.ttf
p496
sg21
g22
sbag1
(g8
g3
NtRp497
(dp498
g11
g17
sg13
VHiragino Kaku Gothic Std
p499
sg15
I700
sg16
g17
sg18
g17
sg19
V/Library/Fonts/\u30d2\u30e9\u30ad\u3099\u30ce\u89d2\u30b3\u3099 Std W8.otf
p500
sg21
g22
sbag1
(g8
g3
NtRp501
(dp502
g11
g17
sg13
V.Hiragino Kaku Gothic Interface
p503
sg15
I400
sg16
g17
sg18
g17
sg19
V/System/Library/Fonts/HiraKakuInterface-W1.otf
p504
sg21
g22
sbag1
(g8
g3
NtRp505
(dp506
g11
g17
sg13
VHiragino Kaku Gothic ProN
p507
sg15
I700
sg16
g17
sg18
g17
sg19
V/System/Library/Fonts/\u30d2\u30e9\u30ad\u3099\u30ce\u89d2\u30b3\u3099 ProN W6.otf
p508
sg21
g22
sbag1
(g8
g3
NtRp509
(dp510
g11
g17
sg13
VPCMyungjo
p511
sg15
I400
sg16
g17
sg18
g17
sg19
V/Library/Fonts/PCmyoungjo.ttf
p512
sg21
g22
sbag1
(g8
g3
NtRp513
(dp514
g11
g17
sg13
VLastResort
p515
sg15
I400
sg16
g17
sg18
g17
sg19
V/System/Library/Fonts/LastResort.ttf
p516
sg21
g22
sbag1
(g8
g3
NtRp517
(dp518
g11
g17
sg13
VApple SD Gothic Neo
p519
sg15
I200
sg16
g17
sg18
g17
sg19
V/Library/Fonts/AppleSDGothicNeo-Light.otf
p520
sg21
g22
sbag1
(g8
g3
NtRp521
(dp522
g11
g12
sg13
VVerdana
p523
sg15
I700
sg16
g17
sg18
g17
sg19
V/Library/Fonts/Verdana Bold Italic.ttf
p524
sg21
g22
sbag1
(g8
g3
NtRp525
(dp526
g11
g17
sg13
VLiHei Pro
p527
sg15
I400
sg16
g17
sg18
g17
sg19
V/Library/Fonts/\u5137\u9ed1 Pro.ttf
p528
sg21
g22
sbag1
(g8
g3
NtRp529
(dp530
g11
g17
sg13
VHiragino Sans GB
p531
sg15
I700
sg16
g17
sg18
g17
sg19
V/Library/Fonts/Hiragino Sans GB W6.otf
p532
sg21
g22
sbag1
(g8
g3
NtRp533
(dp534
g11
g17
sg13
VKailasa
p535
sg15
I400
sg16
g17
sg18
g17
sg19
V/Library/Fonts/Kailasa.ttf
p536
sg21
g22
sbag1
(g8
g3
NtRp537
(dp538
g11
g17
sg13
VSTIXIntegralsSm
p539
sg15
I400
sg16
g17
sg18
g17
sg19
V/Library/Fonts/STIXIntSmReg.otf
p540
sg21
g22
sbag1
(g8
g3
NtRp541
(dp542
g11
g17
sg13
VApple SD Gothic Neo
p543
sg15
I400
sg16
g17
sg18
g17
sg19
V/Library/Fonts/AppleSDGothicNeo-Thin.otf
p544
sg21
g22
sbag1
(g8
g3
NtRp545
(dp546
g11
g17
sg13
VKokonor
p547
sg15
I400
sg16
g17
sg18
g17
sg19
V/Library/Fonts/Kokonor.ttf
p548
sg21
g22
sbag1
(g8
g3
NtRp549
(dp550
g11
g12
sg13
VVerdana
p551
sg15
I400
sg16
g17
sg18
g17
sg19
V/Library/Fonts/Verdana Italic.ttf
p552
sg21
g22
sbag1
(g8
g3
NtRp553
(dp554
g11
g17
sg13
VSTIXGeneral
p555
sg15
I700
sg16
g17
sg18
g17
sg19
V/Library/Fonts/STIXGeneralBol.otf
p556
sg21
g22
sbag1
(g8
g3
NtRp557
(dp558
g11
g17
sg13
VApple Braille
p559
sg15
I400
sg16
g17
sg18
g17
sg19
V/System/Library/Fonts/Apple Braille.ttf
p560
sg21
g22
sbag1
(g8
g3
NtRp561
(dp562
g11
g17
sg13
VInaiMathi
p563
sg15
I400
sg16
g17
sg18
g17
sg19
V/Library/Fonts/InaiMathi.ttf
p564
sg21
g22
sbag1
(g8
g3
NtRp565
(dp566
g11
g17
sg13
VWeibei TC
p567
sg15
I700
sg16
g17
sg18
g17
sg19
V/Library/Fonts/WeibeiTC-Bold.otf
p568
sg21
g22
sbag1
(g8
g3
NtRp569
(dp570
g11
g17
sg13
VSTIXNonUnicode
p571
sg15
I400
sg16
g17
sg18
g17
sg19
V/Library/Fonts/STIXNonUni.otf
p572
sg21
g22
sbag1
(g8
g3
NtRp573
(dp574
g11
g17
sg13
VOsaka
p575
sg15
I400
sg16
g17
sg18
g17
sg19
V/Library/Fonts/OsakaMono.ttf
p576
sg21
g22
sbag1
(g8
g3
NtRp577
(dp578
g11
g12
sg13
VSTIXNonUnicode
p579
sg15
I400
sg16
g17
sg18
g17
sg19
V/Library/Fonts/STIXNonUniIta.otf
p580
sg21
g22
sbag1
(g8
g3
NtRp581
(dp582
g11
g17
sg13
VSTIXIntegralsUp
p583
sg15
I400
sg16
g17
sg18
g17
sg19
V/Library/Fonts/STIXIntUpReg.otf
p584
sg21
g22
sbag1
(g8
g3
NtRp585
(dp586
g11
g17
sg13
VYuppy SC
p587
sg15
I400
sg16
g17
sg18
g17
sg19
V/Library/Fonts/YuppySC-Regular.otf
p588
sg21
g22
sbag1
(g8
g3
NtRp589
(dp590
g11
g17
sg13
VComic Sans MS
p591
sg15
I700
sg16
g17
sg18
g17
sg19
V/Library/Fonts/Comic Sans MS Bold.ttf
p592
sg21
g22
sbag1
(g8
g3
NtRp593
(dp594
g11
g17
sg13
VTrebuchet MS
p595
sg15
I400
sg16
g17
sg18
g17
sg19
V/Library/Fonts/Trebuchet MS.ttf
p596
sg21
g22
sbag1
(g8
g3
NtRp597
(dp598
g11
g17
sg13
VCourier New
p599
sg15
I700
sg16
g17
sg18
g17
sg19
V/Library/Fonts/Courier New Bold.ttf
p600
sg21
g22
sbag1
(g8
g3
NtRp601
(dp602
g11
g17
sg13
VBig Caslon
p603
sg15
I500
sg16
g17
sg18
g17
sg19
V/Library/Fonts/BigCaslon.ttf
p604
sg21
g22
sbag1
(g8
g3
NtRp605
(dp606
g11
g17
sg13
VAyuthaya
p607
sg15
I400
sg16
g17
sg18
g17
sg19
V/Library/Fonts/Ayuthaya.ttf
p608
sg21
g22
sbag1
(g8
g3
NtRp609
(dp610
g11
g17
sg13
VApple SD Gothic Neo
p611
sg15
I700
sg16
g17
sg18
g17
sg19
V/Library/Fonts/AppleSDGothicNeo-SemiBold.otf
p612
sg21
g22
sbag1
(g8
g3
NtRp613
(dp614
g11
g17
sg13
VHerculanum
p615
sg15
I400
sg16
g17
sg18
g17
sg19
V/Library/Fonts/Herculanum.ttf
p616
sg21
g22
sbag1
(g8
g3
NtRp617
(dp618
g11
g17
sg13
VWebdings
p619
sg15
I400
sg16
g17
sg18
g17
sg19
V/Library/Fonts/Webdings.ttf
p620
sg21
g22
sbag1
(g8
g3
NtRp621
(dp622
g11
g17
sg13
VApple Braille
p623
sg15
I400
sg16
g17
sg18
g17
sg19
V/System/Library/Fonts/Apple Braille Pinpoint 6 Dot.ttf
p624
sg21
g22
sbag1
(g8
g3
NtRp625
(dp626
g11
g17
sg13
VHiragino Mincho ProN
p627
sg15
I700
sg16
g17
sg18
g17
sg19
V/System/Library/Fonts/\u30d2\u30e9\u30ad\u3099\u30ce\u660e\u671d ProN W6.otf
p628
sg21
g22
sbag1
(g8
g3
NtRp629
(dp630
g11
g17
sg13
VSymbol
p631
sg15
I400
sg16
g17
sg18
g17
sg19
V/System/Library/Fonts/Symbol.ttf
p632
sg21
g22
sbag1
(g8
g3
NtRp633
(dp634
g11
g12
sg13
VTrebuchet MS
p635
sg15
I700
sg16
g17
sg18
g17
sg19
V/Library/Fonts/Trebuchet MS Bold Italic.ttf
p636
sg21
g22
sbag1
(g8
g3
NtRp637
(dp638
g11
g17
sg13
VSTHeiti
p639
sg15
I400
sg16
g17
sg18
g17
sg19
V/Library/Fonts/\u534e\u6587\u7ec6\u9ed1.ttf
p640
sg21
g22
sbag1
(g8
g3
NtRp641
(dp642
g11
g17
sg13
VWingdings 2
p643
sg15
I400
sg16
g17
sg18
g17
sg19
V/Library/Fonts/Wingdings 2.ttf
p644
sg21
g22
sbag1
(g8
g3
NtRp645
(dp646
g11
g17
sg13
VSignPainter
p647
sg15
I400
sg16
g17
sg18
g17
sg19
V/Library/Fonts/SignPainter.otf
p648
sg21
g22
sbag1
(g8
g3
NtRp649
(dp650
g11
g17
sg13
VTahoma
p651
sg15
I400
sg16
g17
sg18
g17
sg19
V/Library/Fonts/Tahoma.ttf
p652
sg21
g22
sbag1
(g8
g3
NtRp653
(dp654
g11
g12
sg13
VBrush Script MT
p655
sg15
I400
sg16
g17
sg18
g17
sg19
V/Library/Fonts/Brush Script.ttf
p656
sg21
g22
sbag1
(g8
g3
NtRp657
(dp658
g11
g17
sg13
V.Keyboard
p659
sg15
I400
sg16
g17
sg18
g17
sg19
V/System/Library/Fonts/Keyboard.ttf
p660
sg21
g22
sbag1
(g8
g3
NtRp661
(dp662
g11
g17
sg13
VSTIXSizeOneSym
p663
sg15
I400
sg16
g17
sg18
g17
sg19
V/Library/Fonts/STIXSizOneSymReg.otf
p664
sg21
g22
sbag1
(g8
g3
NtRp665
(dp666
g11
g17
sg13
VSTIXIntegralsUpSm
p667
sg15
I400
sg16
g17
sg18
g17
sg19
V/Library/Fonts/STIXIntUpSmReg.otf
p668
sg21
g22
sbag1
(g8
g3
NtRp669
(dp670
g11
g17
sg13
VAndale Mono
p671
sg15
I400
sg16
g17
sg18
g17
sg19
V/Library/Fonts/Andale Mono.ttf
p672
sg21
g22
sbag1
(g8
g3
NtRp673
(dp674
g11
g17
sg13
VKhmer Sangam MN
p675
sg15
I400
sg16
g17
sg18
g17
sg19
V/Library/Fonts/Khmer Sangam MN.ttf
p676
sg21
g22
sbag1
(g8
g3
NtRp677
(dp678
g11
g17
sg13
VYuMincho
p679
sg15
I400
sg16
g17
sg18
g17
sg19
V/Library/Fonts/Yu Mincho Medium.otf
p680
sg21
g22
sbag1
(g8
g3
NtRp681
(dp682
g11
g17
sg13
VMicrosoft Sans Serif
p683
sg15
I400
sg16
g17
sg18
g17
sg19
V/Library/Fonts/Microsoft Sans Serif.ttf
p684
sg21
g22
sbag1
(g8
g3
NtRp685
(dp686
g11
g17
sg13
VSTIXIntegralsUpD
p687
sg15
I700
sg16
g17
sg18
g17
sg19
V/Library/Fonts/STIXIntUpDBol.otf
p688
sg21
g22
sbag1
(g8
g3
NtRp689
(dp690
g11
g17
sg13
V.Hiragino Kaku Gothic Interface
p691
sg15
I400
sg16
g17
sg18
g17
sg19
V/System/Library/Fonts/HiraKakuInterface-W2.otf
p692
sg21
g22
sbag1
(g8
g3
NtRp693
(dp694
g11
g17
sg13
VSTIXGeneral
p695
sg15
I400
sg16
g17
sg18
g17
sg19
V/Library/Fonts/STIXGeneral.otf
p696
sg21
g22
sbag1
(g8
g3
NtRp697
(dp698
g11
g12
sg13
VCourier New
p699
sg15
I400
sg16
g17
sg18
g17
sg19
V/Library/Fonts/Courier New Italic.ttf
p700
sg21
g22
sbag1
(g8
g3
NtRp701
(dp702
g11
g17
sg13
VArial Black
p703
sg15
I900
sg16
g17
sg18
g17
sg19
V/Library/Fonts/Arial Black.ttf
p704
sg21
g22
sbag1
(g8
g3
NtRp705
(dp706
g11
g12
sg13
VSTIXGeneral
p707
sg15
I400
sg16
g17
sg18
g17
sg19
V/Library/Fonts/STIXGeneralItalic.otf
p708
sg21
g22
sbag1
(g8
g3
NtRp709
(dp710
g11
g17
sg13
VSilom
p711
sg15
I400
sg16
g17
sg18
g17
sg19
V/Library/Fonts/Silom.ttf
p712
sg21
g22
sbag1
(g8
g3
NtRp713
(dp714
g11
g29
sg13
VMshtakan
p715
sg15
I700
sg16
g17
sg18
g17
sg19
V/Library/Fonts/MshtakanBoldOblique.ttf
p716
sg21
g22
sbag1
(g8
g3
NtRp717
(dp718
g11
g17
sg13
VYuppy TC
p719
sg15
I400
sg16
g17
sg18
g17
sg19
V/Library/Fonts/YuppyTC-Regular.otf
p720
sg21
g22
sbag1
(g8
g3
NtRp721
(dp722
g11
g17
sg13
VHiragino Kaku Gothic ProN
p723
sg15
I400
sg16
g17
sg18
g17
sg19
V/System/Library/Fonts/\u30d2\u30e9\u30ad\u3099\u30ce\u89d2\u30b3\u3099 ProN W3.otf
p724
sg21
g22
sbag1
(g8
g3
NtRp725
(dp726
g11
g17
sg13
VSTIXSizeFourSym
p727
sg15
I400
sg16
g17
sg18
g17
sg19
V/Library/Fonts/STIXSizFourSymReg.otf
p728
sg21
g22
sbag1
(g8
g3
NtRp729
(dp730
g11
g17
sg13
VApple Chancery
p731
sg15
I400
sg16
g17
sg18
g17
sg19
V/Library/Fonts/Apple Chancery.ttf
p732
sg21
g22
sbag1
(g8
g3
NtRp733
(dp734
g11
g17
sg13
VWingdings 3
p735
sg15
I400
sg16
g17
sg18
g17
sg19
V/Library/Fonts/Wingdings 3.ttf
p736
sg21
g22
sbag1
(g8
g3
NtRp737
(dp738
g11
g12
sg13
VSTIXGeneral
p739
sg15
I700
sg16
g17
sg18
g17
sg19
V/Library/Fonts/STIXGeneralBolIta.otf
p740
sg21
g22
sbag1
(g8
g3
NtRp741
(dp742
g11
g17
sg13
VSTIXIntegralsUpSm
p743
sg15
I700
sg16
g17
sg18
g17
sg19
V/Library/Fonts/STIXIntUpSmBol.otf
p744
sg21
g22
sbag1
(g8
g3
NtRp745
(dp746
g11
g17
sg13
VLao Sangam MN
p747
sg15
I400
sg16
g17
sg18
g17
sg19
V/Library/Fonts/Lao Sangam MN.ttf
p748
sg21
g22
sbag1
(g8
g3
NtRp749
(dp750
g11
g17
sg13
VTrattatello
p751
sg15
I400
sg16
g17
sg18
g17
sg19
V/Library/Fonts/Trattatello.ttf
p752
sg21
g22
sbag1
(g8
g3
NtRp753
(dp754
g11
g17
sg13
VSTIXSizeOneSym
p755
sg15
I700
sg16
g17
sg18
g17
sg19
V/Library/Fonts/STIXSizOneSymBol.otf
p756
sg21
g22
sbag1
(g8
g3
NtRp757
(dp758
g11
g17
sg13
VComic Sans MS
p759
sg15
I400
sg16
g17
sg18
g17
sg19
V/Library/Fonts/Comic Sans MS.ttf
p760
sg21
g22
sbag1
(g8
g3
NtRp761
(dp762
g11
g17
sg13
VSTIXSizeTwoSym
p763
sg15
I400
sg16
g17
sg18
g17
sg19
V/Library/Fonts/STIXSizTwoSymReg.otf
p764
sg21
g22
sbag1
(g8
g3
NtRp765
(dp766
g11
g17
sg13
VBodoni Ornaments
p767
sg15
I400
sg16
g17
sg18
g17
sg19
V/Library/Fonts/Bodoni Ornaments.ttf
p768
sg21
g22
sbag1
(g8
g3
NtRp769
(dp770
g11
g17
sg13
VWeibei SC
p771
sg15
I700
sg16
g17
sg18
g17
sg19
V/Library/Fonts/WeibeiSC-Bold.otf
p772
sg21
g22
sbag1
(g8
g3
NtRp773
(dp774
g11
g17
sg13
VSTIXSizeFourSym
p775
sg15
I700
sg16
g17
sg18
g17
sg19
V/Library/Fonts/STIXSizFourSymBol.otf
p776
sg21
g22
sbag1
(g8
g3
NtRp777
(dp778
g11
g17
sg13
VArial
p779
sg15
I700
sg16
g17
sg18
g17
sg19
V/Library/Fonts/Arial Bold.ttf
p780
sg21
g22
sbag1
(g8
g3
NtRp781
(dp782
g11
g17
sg13
VGeorgia
p783
sg15
I700
sg16
g17
sg18
g17
sg19
V/Library/Fonts/Georgia Bold.ttf
p784
sg21
g22
sbag1
(g8
g3
NtRp785
(dp786
g11
g17
sg13
VSTIXIntegralsD
p787
sg15
I400
sg16
g17
sg18
g17
sg19
V/Library/Fonts/STIXIntDReg.otf
p788
sg21
g22
sbag1
(g8
g3
NtRp789
(dp790
g11
g17
sg13
VGungSeo
p791
sg15
I400
sg16
g17
sg18
g17
sg19
V/Library/Fonts/Gungseouche.ttf
p792
sg21
g22
sbag1
(g8
g3
NtRp793
(dp794
g11
g17
sg13
VSTIXSizeTwoSym
p795
sg15
I700
sg16
g17
sg18
g17
sg19
V/Library/Fonts/STIXSizTwoSymBol.otf
p796
sg21
g22
sbag1
(g8
g3
NtRp797
(dp798
g11
g17
sg13
VWingdings
p799
sg15
I400
sg16
g17
sg18
g17
sg19
V/Library/Fonts/Wingdings.ttf
p800
sg21
g22
sbag1
(g8
g3
NtRp801
(dp802
g11
g17
sg13
VHiragino Kaku Gothic StdN
p803
sg15
I700
sg16
g17
sg18
g17
sg19
V/Library/Fonts/\u30d2\u30e9\u30ad\u3099\u30ce\u89d2\u30b3\u3099 StdN W8.otf
p804
sg21
g22
sbag1
(g8
g3
NtRp805
(dp806
g11
g17
sg13
VImpact
p807
sg15
I400
sg16
g17
sg18
g17
sg19
V/Library/Fonts/Impact.ttf
p808
sg21
g22
sbag1
(g8
g3
NtRp809
(dp810
g11
g17
sg13
VTahoma
p811
sg15
I700
sg16
g17
sg18
g17
sg19
V/Library/Fonts/Tahoma Bold.ttf
p812
sg21
g22
sbag1
(g8
g3
NtRp813
(dp814
g11
g17
sg13
VSTIXNonUnicode
p815
sg15
I700
sg16
g17
sg18
g17
sg19
V/Library/Fonts/STIXNonUniBol.otf
p816
sg21
g22
sbag1
(g8
g3
NtRp817
(dp818
g11
g12
sg13
VGeorgia
p819
sg15
I700
sg16
g17
sg18
g17
sg19
V/Library/Fonts/Georgia Bold Italic.ttf
p820
sg21
g22
sbag1
(g8
g3
NtRp821
(dp822
g11
g17
sg13
VSTIXIntegralsUpD
p823
sg15
I400
sg16
g17
sg18
g17
sg19
V/Library/Fonts/STIXIntUpDReg.otf
p824
sg21
g22
sbag1
(g8
g3
NtRp825
(dp826
g11
g17
sg13
VSathu
p827
sg15
I400
sg16
g17
sg18
g17
sg19
V/Library/Fonts/Sathu.ttf
p828
sg21
g22
sbag1
(g8
g3
NtRp829
(dp830
g11
g17
sg13
VGujarati MT
p831
sg15
I400
sg16
g17
sg18
g17
sg19
V/Library/Fonts/GujaratiMT.ttf
p832
sg21
g22
sbag1
(g8
g3
NtRp833
(dp834
g11
g17
sg13
VApple SD Gothic Neo
p835
sg15
I500
sg16
g17
sg18
g17
sg19
V/Library/Fonts/AppleSDGothicNeo-Medium.otf
p836
sg21
g22
sbasS'defaultFamily'
p837
(dp838
Vafm
p839
VHelvetica
p840
sVttf
p841
VDejaVu Sans
p842
ssS'ttffiles'
p843
(lp844
g20
ag26
ag31
ag35
ag39
ag43
ag47
ag51
ag55
ag59
ag63
ag67
ag71
ag75
ag79
ag83
ag87
ag91
ag95
ag99
ag103
ag107
ag111
ag115
ag119
ag123
ag127
ag131
ag135
ag139
ag143
ag147
ag151
ag155
ag159
ag163
ag167
ag171
ag175
ag179
ag183
ag187
ag191
ag195
ag199
ag203
ag207
ag212
ag216
ag220
ag224
ag228
ag232
ag236
ag240
ag244
ag248
ag252
ag256
aV/Library/Fonts/NISC18030.ttf
p845
ag260
ag264
ag268
ag272
ag276
ag280
ag284
ag288
ag292
ag296
ag300
ag304
ag308
ag312
ag316
ag320
ag324
ag328
ag332
ag336
ag340
ag344
ag348
ag352
ag356
ag360
ag364
ag368
ag372
ag376
ag380
ag384
ag388
ag392
ag396
ag400
ag404
ag408
ag412
ag416
ag420
ag424
ag428
ag432
ag436
ag440
ag444
ag448
ag452
ag456
aV/System/Library/Fonts/Apple Color Emoji.ttf
p846
ag460
ag464
ag468
ag472
ag476
ag480
ag484
ag488
ag492
ag496
ag500
ag504
ag508
ag512
ag516
ag520
ag524
ag528
ag532
ag536
ag540
ag544
ag548
ag552
ag556
ag560
ag564
ag568
ag572
ag576
ag580
ag584
ag588
ag592
ag596
ag600
ag604
ag608
ag612
ag616
ag620
ag624
ag628
ag632
ag636
ag640
ag644
ag648
ag652
ag656
ag660
ag664
ag668
ag672
ag676
ag680
ag684
ag688
ag692
ag696
ag700
ag704
ag708
ag712
ag716
ag720
ag724
ag728
ag732
ag736
ag740
ag744
ag748
ag752
ag756
ag760
ag764
ag768
ag772
ag776
ag780
ag784
ag788
ag792
ag796
ag800
ag804
ag808
ag812
ag816
ag820
ag824
ag828
ag832
ag836
asS'_FontManager__default_weight'
p847
Vnormal
p848
sS'_version'
p849
I201
sS'default_size'
p850
NsS'defaultFont'
p851
(dp852
g839
V/opt/local/Library/Frameworks/Python.framework/Versions/2.7/lib/python2.7/site-packages/matplotlib/mpl-data/fonts/afm/ptmb8a.afm
p853
sg841
g20
ssS'afmfiles'
p854
(lp855
g853
aV/opt/local/Library/Frameworks/Python.framework/Versions/2.7/lib/python2.7/site-packages/matplotlib/mpl-data/fonts/pdfcorefonts/Symbol.afm
p856
aV/opt/local/Library/Frameworks/Python.framework/Versions/2.7/lib/python2.7/site-packages/matplotlib/mpl-data/fonts/pdfcorefonts/Helvetica.afm
p857
aV/opt/local/Library/Frameworks/Python.framework/Versions/2.7/lib/python2.7/site-packages/matplotlib/mpl-data/fonts/pdfcorefonts/Times-Bold.afm
p858
aV/opt/local/Library/Frameworks/Python.framework/Versions/2.7/lib/python2.7/site-packages/matplotlib/mpl-data/fonts/afm/psyr.afm
p859
aV/opt/local/Library/Frameworks/Python.framework/Versions/2.7/lib/python2.7/site-packages/matplotlib/mpl-data/fonts/afm/cmex10.afm
p860
aV/opt/local/Library/Frameworks/Python.framework/Versions/2.7/lib/python2.7/site-packages/matplotlib/mpl-data/fonts/afm/pagd8a.afm
p861
aV/opt/local/Library/Frameworks/Python.framework/Versions/2.7/lib/python2.7/site-packages/matplotlib/mpl-data/fonts/afm/pplri8a.afm
p862
aV/opt/local/Library/Frameworks/Python.framework/Versions/2.7/lib/python2.7/site-packages/matplotlib/mpl-data/fonts/afm/cmmi10.afm
p863
aV/opt/local/Library/Frameworks/Python.framework/Versions/2.7/lib/python2.7/site-packages/matplotlib/mpl-data/fonts/afm/pplr8a.afm
p864
aV/opt/local/Library/Frameworks/Python.framework/Versions/2.7/lib/python2.7/site-packages/matplotlib/mpl-data/fonts/afm/pncri8a.afm
p865
aV/opt/local/Library/Frameworks/Python.framework/Versions/2.7/lib/python2.7/site-packages/matplotlib/mpl-data/fonts/pdfcorefonts/Courier-Bold.afm
p866
aV/opt/local/Library/Frameworks/Python.framework/Versions/2.7/lib/python2.7/site-packages/matplotlib/mpl-data/fonts/afm/phvro8an.afm
p867
aV/opt/local/Library/Frameworks/Python.framework/Versions/2.7/lib/python2.7/site-packages/matplotlib/mpl-data/fonts/afm/phvb8a.afm
p868
aV/opt/local/Library/Frameworks/Python.framework/Versions/2.7/lib/python2.7/site-packages/matplotlib/mpl-data/fonts/afm/pagdo8a.afm
p869
aV/opt/local/Library/Frameworks/Python.framework/Versions/2.7/lib/python2.7/site-packages/matplotlib/mpl-data/fonts/pdfcorefonts/Courier-Oblique.afm
p870
aV/opt/local/Library/Frameworks/Python.framework/Versions/2.7/lib/python2.7/site-packages/matplotlib/mpl-data/fonts/afm/pbkdi8a.afm
p871
aV/opt/local/Library/Frameworks/Python.framework/Versions/2.7/lib/python2.7/site-packages/matplotlib/mpl-data/fonts/pdfcorefonts/Times-BoldItalic.afm
p872
aV/opt/local/Library/Frameworks/Python.framework/Versions/2.7/lib/python2.7/site-packages/matplotlib/mpl-data/fonts/pdfcorefonts/Courier.afm
p873
aV/opt/local/Library/Frameworks/Python.framework/Versions/2.7/lib/python2.7/site-packages/matplotlib/mpl-data/fonts/afm/phvbo8an.afm
p874
aV/opt/local/Library/Frameworks/Python.framework/Versions/2.7/lib/python2.7/site-packages/matplotlib/mpl-data/fonts/pdfcorefonts/Times-Italic.afm
p875
aV/opt/local/Library/Frameworks/Python.framework/Versions/2.7/lib/python2.7/site-packages/matplotlib/mpl-data/fonts/afm/pbkli8a.afm
p876
aV/opt/local/Library/Frameworks/Python.framework/Versions/2.7/lib/python2.7/site-packages/matplotlib/mpl-data/fonts/afm/pzdr.afm
p877
aV/opt/local/Library/Frameworks/Python.framework/Versions/2.7/lib/python2.7/site-packages/matplotlib/mpl-data/fonts/afm/phvr8an.afm
p878
aV/opt/local/Library/Frameworks/Python.framework/Versions/2.7/lib/python2.7/site-packages/matplotlib/mpl-data/fonts/afm/putb8a.afm
p879
aV/opt/local/Library/Frameworks/Python.framework/Versions/2.7/lib/python2.7/site-packages/matplotlib/mpl-data/fonts/afm/pagk8a.afm
p880
aV/opt/local/Library/Frameworks/Python.framework/Versions/2.7/lib/python2.7/site-packages/matplotlib/mpl-data/fonts/afm/phvro8a.afm
p881
aV/opt/local/Library/Frameworks/Python.framework/Versions/2.7/lib/python2.7/site-packages/matplotlib/mpl-data/fonts/afm/putbi8a.afm
p882
aV/opt/local/Library/Frameworks/Python.framework/Versions/2.7/lib/python2.7/site-packages/matplotlib/mpl-data/fonts/afm/pcrr8a.afm
p883
aV/opt/local/Library/Frameworks/Python.framework/Versions/2.7/lib/python2.7/site-packages/matplotlib/mpl-data/fonts/pdfcorefonts/Helvetica-BoldOblique.afm
p884
aV/opt/local/Library/Frameworks/Python.framework/Versions/2.7/lib/python2.7/site-packages/matplotlib/mpl-data/fonts/pdfcorefonts/Helvetica-Oblique.afm
p885
aV/opt/local/Library/Frameworks/Python.framework/Versions/2.7/lib/python2.7/site-packages/matplotlib/mpl-data/fonts/afm/ptmri8a.afm
p886
aV/opt/local/Library/Frameworks/Python.framework/Versions/2.7/lib/python2.7/site-packages/matplotlib/mpl-data/fonts/afm/phvbo8a.afm
p887
aV/opt/local/Library/Frameworks/Python.framework/Versions/2.7/lib/python2.7/site-packages/matplotlib/mpl-data/fonts/afm/pzcmi8a.afm
p888
aV/opt/local/Library/Frameworks/Python.framework/Versions/2.7/lib/python2.7/site-packages/matplotlib/mpl-data/fonts/afm/putri8a.afm
p889
aV/opt/local/Library/Frameworks/Python.framework/Versions/2.7/lib/python2.7/site-packages/matplotlib/mpl-data/fonts/afm/pbkd8a.afm
p890
aV/opt/local/Library/Frameworks/Python.framework/Versions/2.7/lib/python2.7/site-packages/matplotlib/mpl-data/fonts/pdfcorefonts/ZapfDingbats.afm
p891
aV/opt/local/Library/Frameworks/Python.framework/Versions/2.7/lib/python2.7/site-packages/matplotlib/mpl-data/fonts/afm/phvr8a.afm
p892
aV/opt/local/Library/Frameworks/Python.framework/Versions/2.7/lib/python2.7/site-packages/matplotlib/mpl-data/fonts/afm/pbkl8a.afm
p893
aV/opt/local/Library/Frameworks/Python.framework/Versions/2.7/lib/python2.7/site-packages/matplotlib/mpl-data/fonts/afm/pncbi8a.afm
p894
aV/opt/local/Library/Frameworks/Python.framework/Versions/2.7/lib/python2.7/site-packages/matplotlib/mpl-data/fonts/afm/putr8a.afm
p895
aV/opt/local/Library/Frameworks/Python.framework/Versions/2.7/lib/python2.7/site-packages/matplotlib/mpl-data/fonts/pdfcorefonts/Helvetica-Bold.afm
p896
aV/opt/local/Library/Frameworks/Python.framework/Versions/2.7/lib/python2.7/site-packages/matplotlib/mpl-data/fonts/afm/phvlo8a.afm
p897
aV/opt/local/Library/Frameworks/Python.framework/Versions/2.7/lib/python2.7/site-packages/matplotlib/mpl-data/fonts/afm/pncb8a.afm
p898
aV/opt/local/Library/Frameworks/Python.framework/Versions/2.7/lib/python2.7/site-packages/matplotlib/mpl-data/fonts/afm/phvb8an.afm
p899
aV/opt/local/Library/Frameworks/Python.framework/Versions/2.7/lib/python2.7/site-packages/matplotlib/mpl-data/fonts/afm/pcrro8a.afm
p900
aV/opt/local/Library/Frameworks/Python.framework/Versions/2.7/lib/python2.7/site-packages/matplotlib/mpl-data/fonts/afm/phvl8a.afm
p901
aV/opt/local/Library/Frameworks/Python.framework/Versions/2.7/lib/python2.7/site-packages/matplotlib/mpl-data/fonts/afm/pcrb8a.afm
p902
aV/opt/local/Library/Frameworks/Python.framework/Versions/2.7/lib/python2.7/site-packages/matplotlib/mpl-data/fonts/afm/cmr10.afm
p903
aV/opt/local/Library/Frameworks/Python.framework/Versions/2.7/lib/python2.7/site-packages/matplotlib/mpl-data/fonts/afm/cmsy10.afm
p904
aV/opt/local/Library/Frameworks/Python.framework/Versions/2.7/lib/python2.7/site-packages/matplotlib/mpl-data/fonts/afm/pagko8a.afm
p905
aV/opt/local/Library/Frameworks/Python.framework/Versions/2.7/lib/python2.7/site-packages/matplotlib/mpl-data/fonts/pdfcorefonts/Times-Roman.afm
p906
aV/opt/local/Library/Frameworks/Python.framework/Versions/2.7/lib/python2.7/site-packages/matplotlib/mpl-data/fonts/pdfcorefonts/Courier-BoldOblique.afm
p907
aV/opt/local/Library/Frameworks/Python.framework/Versions/2.7/lib/python2.7/site-packages/matplotlib/mpl-data/fonts/afm/pcrbo8a.afm
p908
aV/opt/local/Library/Frameworks/Python.framework/Versions/2.7/lib/python2.7/site-packages/matplotlib/mpl-data/fonts/afm/cmtt10.afm
p909
aV/opt/local/Library/Frameworks/Python.framework/Versions/2.7/lib/python2.7/site-packages/matplotlib/mpl-data/fonts/afm/ptmr8a.afm
p910
aV/opt/local/Library/Frameworks/Python.framework/Versions/2.7/lib/python2.7/site-packages/matplotlib/mpl-data/fonts/afm/pncr8a.afm
p911
aV/opt/local/Library/Frameworks/Python.framework/Versions/2.7/lib/python2.7/site-packages/matplotlib/mpl-data/fonts/afm/pplb8a.afm
p912
aV/opt/local/Library/Frameworks/Python.framework/Versions/2.7/lib/python2.7/site-packages/matplotlib/mpl-data/fonts/afm/pplbi8a.afm
p913
aV/opt/local/Library/Frameworks/Python.framework/Versions/2.7/lib/python2.7/site-packages/matplotlib/mpl-data/fonts/afm/ptmbi8a.afm
p914
aV/opt/local/share/fonts/urw-fonts/n021004l.afm
p915
aV/opt/local/share/fonts/urw-fonts/n019024l.afm
p916
aV/opt/local/share/fonts/Type1/gsfonts/d050000l.afm
p917
aV/opt/local/share/fonts/Type1/gsfonts/c059033l.afm
p918
aV/opt/local/share/fonts/urw-fonts/n021023l.afm
p919
aV/opt/local/share/fonts/urw-fonts/c059016l.afm
p920
aV/opt/local/share/fonts/Type1/gsfonts/b018035l.afm
p921
aV/opt/local/share/fonts/urw-fonts/n022023l.afm
p922
aV/opt/local/share/fonts/Type1/gsfonts/u003043t.afm
p923
aV/opt/local/share/fonts/urw-fonts/n021003l.afm
p924
aV/opt/local/share/fonts/Type1/gsfonts/c059016l.afm
p925
aV/opt/local/share/fonts/Type1/gsfonts/n021004l.afm
p926
aV/opt/local/share/fonts/Type1/gsfonts/n021023l.afm
p927
aV/opt/local/share/fonts/urw-fonts/n019064l.afm
p928
aV/opt/local/share/fonts/urw-fonts/n022003l.afm
p929
aV/opt/local/share/fonts/Type1/gsfonts/n022023l.afm
p930
aV/opt/local/share/fonts/Type1/gsfonts/n022004l.afm
p931
aV/opt/local/share/fonts/Type1/gsfonts/p052003l.afm
p932
aV/opt/local/share/fonts/Type1/gsfonts/b018012l.afm
p933
aV/opt/local/share/fonts/urw-fonts/n019004l.afm
p934
aV/opt/local/share/fonts/urw-fonts/b018012l.afm
p935
aV/opt/local/share/fonts/Type1/gsfonts/p052023l.afm
p936
aV/opt/local/share/fonts/Type1/gsfonts/n019063l.afm
p937
aV/opt/local/share/fonts/urw-fonts/n022004l.afm
p938
aV/opt/local/share/fonts/Type1/gsfonts/c059036l.afm
p939
aV/opt/local/share/fonts/Type1/gsfonts/n022024l.afm
p940
aV/opt/local/share/fonts/urw-fonts/b018035l.afm
p941
aV/opt/local/share/fonts/Type1/gsfonts/s050000l.afm
p942
aV/opt/local/share/fonts/Type1/gsfonts/a010033l.afm
p943
aV/opt/local/share/fonts/Type1/gsfonts/b018032l.afm
p944
aV/opt/local/share/fonts/urw-fonts/a010015l.afm
p945
aV/opt/local/share/fonts/Type1/gsfonts/a010035l.afm
p946
aV/opt/local/share/fonts/Type1/gsfonts/z003034l.afm
p947
aV/opt/local/share/fonts/Type1/gsfonts/a010015l.afm
p948
aV/opt/local/share/fonts/urw-fonts/d050000l.afm
p949
aV/opt/local/share/fonts/urw-fonts/c059013l.afm
p950
aV/opt/local/share/fonts/urw-fonts/p052004l.afm
p951
aV/opt/local/share/fonts/Type1/gsfonts/a010013l.afm
p952
aV/opt/local/share/fonts/Type1/gsfonts/n019003l.afm
p953
aV/opt/local/share/fonts/Type1/gsfonts/n019023l.afm
p954
aV/opt/local/share/fonts/urw-fonts/n019063l.afm
p955
aV/opt/local/share/fonts/Type1/gsfonts/p052004l.afm
p956
aV/opt/local/share/fonts/urw-fonts/c059036l.afm
p957
aV/opt/local/share/fonts/urw-fonts/p052023l.afm
p958
aV/opt/local/share/fonts/urw-fonts/a010035l.afm
p959
aV/opt/local/share/fonts/urw-fonts/b018015l.afm
p960
aV/opt/local/share/fonts/urw-fonts/a010013l.afm
p961
aV/opt/local/share/fonts/urw-fonts/c059033l.afm
p962
aV/opt/local/share/fonts/urw-fonts/n022024l.afm
p963
aV/opt/local/share/fonts/urw-fonts/n019003l.afm
p964
aV/opt/local/share/fonts/urw-fonts/b018032l.afm
p965
aV/opt/local/share/fonts/Type1/gsfonts/n019043l.afm
p966
aV/opt/local/share/fonts/urw-fonts/n019043l.afm
p967
aV/opt/local/share/fonts/urw-fonts/s050000l.afm
p968
aV/opt/local/share/fonts/Type1/gsfonts/n019064l.afm
p969
aV/opt/local/share/fonts/Type1/gsfonts/p052024l.afm
p970
aV/opt/local/share/fonts/urw-fonts/n019023l.afm
p971
aV/opt/local/share/fonts/Type1/gsfonts/n021024l.afm
p972
aV/opt/local/share/fonts/Type1/gsfonts/n021003l.afm
p973
aV/opt/local/share/fonts/urw-fonts/p052003l.afm
p974
aV/opt/local/share/fonts/urw-fonts/p052024l.afm
p975
aV/opt/local/share/fonts/Type1/gsfonts/n022003l.afm
p976
aV/opt/local/share/fonts/urw-fonts/n021024l.afm
p977
aV/opt/local/share/fonts/urw-fonts/z003034l.afm
p978
aV/opt/local/share/fonts/urw-fonts/n019044l.afm
p979
aV/opt/local/share/fonts/Type1/gsfonts/n019044l.afm
p980
aV/opt/local/share/fonts/Type1/gsfonts/n019024l.afm
p981
aV/opt/local/share/fonts/Type1/gsfonts/c059013l.afm
p982
aV/opt/local/share/fonts/Type1/gsfonts/n019004l.afm
p983
aV/opt/local/share/fonts/urw-fonts/a010033l.afm
p984
aV/opt/local/share/fonts/Type1/gsfonts/b018015l.afm
p985
aV/opt/local/share/fonts/Type1/gsfonts/u004006t.afm
p986
asS'afmlist'
p987
(lp988
g1
(g8
g3
NtRp989
(dp990
g11
Vnormal
p991
sg13
VTimes
p992
sg15
I700
sg16
g991
sg18
g991
sg19
g853
sg21
Vscalable
p993
sbag1
(g8
g3
NtRp994
(dp995
g11
g991
sg13
VSymbol
p996
sg15
I500
sg16
g991
sg18
g991
sg19
g856
sg21
g993
sbag1
(g8
g3
NtRp997
(dp998
g11
g991
sg13
VHelvetica
p999
sg15
I500
sg16
g991
sg18
g991
sg19
g857
sg21
g993
sbag1
(g8
g3
NtRp1000
(dp1001
g11
g991
sg13
VTimes
p1002
sg15
I700
sg16
g991
sg18
g991
sg19
g858
sg21
g993
sbag1
(g8
g3
NtRp1003
(dp1004
g11
g991
sg13
VSymbol
p1005
sg15
I500
sg16
g991
sg18
g991
sg19
g859
sg21
g993
sbag1
(g8
g3
NtRp1006
(dp1007
g11
g991
sg13
VComputer Modern
p1008
sg15
I500
sg16
g991
sg18
g991
sg19
g860
sg21
g993
sbag1
(g8
g3
NtRp1009
(dp1010
g11
g991
sg13
VITC Avant Garde Gothic
p1011
sg15
I600
sg16
g991
sg18
g991
sg19
g861
sg21
g993
sbag1
(g8
g3
NtRp1012
(dp1013
g11
Vitalic
p1014
sg13
VPalatino
p1015
sg15
I500
sg16
g991
sg18
g991
sg19
g862
sg21
g993
sbag1
(g8
g3
NtRp1016
(dp1017
g11
g1014
sg13
VComputer Modern
p1018
sg15
I500
sg16
g991
sg18
g991
sg19
g863
sg21
g993
sbag1
(g8
g3
NtRp1019
(dp1020
g11
g991
sg13
VPalatino
p1021
sg15
I500
sg16
g991
sg18
g991
sg19
g864
sg21
g993
sbag1
(g8
g3
NtRp1022
(dp1023
g11
g1014
sg13
VNew Century Schoolbook
p1024
sg15
I500
sg16
g991
sg18
g991
sg19
g865
sg21
g993
sbag1
(g8
g3
NtRp1025
(dp1026
g11
g991
sg13
VCourier
p1027
sg15
I700
sg16
g991
sg18
g991
sg19
g866
sg21
g993
sbag1
(g8
g3
NtRp1028
(dp1029
g11
g1014
sg13
VHelvetica
p1030
sg15
I500
sg16
Vcondensed
p1031
sg18
g991
sg19
g867
sg21
g993
sbag1
(g8
g3
NtRp1032
(dp1033
g11
g991
sg13
VHelvetica
p1034
sg15
I700
sg16
g991
sg18
g991
sg19
g868
sg21
g993
sbag1
(g8
g3
NtRp1035
(dp1036
g11
g1014
sg13
VITC Avant Garde Gothic
p1037
sg15
I600
sg16
g991
sg18
g991
sg19
g869
sg21
g993
sbag1
(g8
g3
NtRp1038
(dp1039
g11
g1014
sg13
VCourier
p1040
sg15
I500
sg16
g991
sg18
g991
sg19
g870
sg21
g993
sbag1
(g8
g3
NtRp1041
(dp1042
g11
g1014
sg13
VITC Bookman
p1043
sg15
I600
sg16
g991
sg18
g991
sg19
g871
sg21
g993
sbag1
(g8
g3
NtRp1044
(dp1045
g11
g1014
sg13
VTimes
p1046
sg15
I700
sg16
g991
sg18
g991
sg19
g872
sg21
g993
sbag1
(g8
g3
NtRp1047
(dp1048
g11
g991
sg13
VCourier
p1049
sg15
I500
sg16
g991
sg18
g991
sg19
g873
sg21
g993
sbag1
(g8
g3
NtRp1050
(dp1051
g11
g1014
sg13
VHelvetica
p1052
sg15
I700
sg16
g1031
sg18
g991
sg19
g874
sg21
g993
sbag1
(g8
g3
NtRp1053
(dp1054
g11
g1014
sg13
VTimes
p1055
sg15
I500
sg16
g991
sg18
g991
sg19
g875
sg21
g993
sbag1
(g8
g3
NtRp1056
(dp1057
g11
g1014
sg13
VITC Bookman
p1058
sg15
I200
sg16
g991
sg18
g991
sg19
g876
sg21
g993
sbag1
(g8
g3
NtRp1059
(dp1060
g11
g991
sg13
VITC Zapf Dingbats
p1061
sg15
I500
sg16
g991
sg18
g991
sg19
g877
sg21
g993
sbag1
(g8
g3
NtRp1062
(dp1063
g11
g991
sg13
VHelvetica
p1064
sg15
I500
sg16
g1031
sg18
g991
sg19
g878
sg21
g993
sbag1
(g8
g3
NtRp1065
(dp1066
g11
g991
sg13
VUtopia
p1067
sg15
I700
sg16
g991
sg18
g991
sg19
g879
sg21
g993
sbag1
(g8
g3
NtRp1068
(dp1069
g11
g991
sg13
VITC Avant Garde Gothic
p1070
sg15
I400
sg16
g991
sg18
g991
sg19
g880
sg21
g993
sbag1
(g8
g3
NtRp1071
(dp1072
g11
g1014
sg13
VHelvetica
p1073
sg15
I500
sg16
g991
sg18
g991
sg19
g881
sg21
g993
sbag1
(g8
g3
NtRp1074
(dp1075
g11
g1014
sg13
VUtopia
p1076
sg15
I700
sg16
g991
sg18
g991
sg19
g882
sg21
g993
sbag1
(g8
g3
NtRp1077
(dp1078
g11
g991
sg13
VCourier
p1079
sg15
I500
sg16
g991
sg18
g991
sg19
g883
sg21
g993
sbag1
(g8
g3
NtRp1080
(dp1081
g11
g1014
sg13
VHelvetica
p1082
sg15
I700
sg16
g991
sg18
g991
sg19
g884
sg21
g993
sbag1
(g8
g3
NtRp1083
(dp1084
g11
g1014
sg13
VHelvetica
p1085
sg15
I500
sg16
g991
sg18
g991
sg19
g885
sg21
g993
sbag1
(g8
g3
NtRp1086
(dp1087
g11
g1014
sg13
VTimes
p1088
sg15
I500
sg16
g991
sg18
g991
sg19
g886
sg21
g993
sbag1
(g8
g3
NtRp1089
(dp1090
g11
g1014
sg13
VHelvetica
p1091
sg15
I700
sg16
g991
sg18
g991
sg19
g887
sg21
g993
sbag1
(g8
g3
NtRp1092
(dp1093
g11
g1014
sg13
VITC Zapf Chancery
p1094
sg15
I500
sg16
g991
sg18
g991
sg19
g888
sg21
g993
sbag1
(g8
g3
NtRp1095
(dp1096
g11
g1014
sg13
VUtopia
p1097
sg15
I400
sg16
g991
sg18
g991
sg19
g889
sg21
g993
sbag1
(g8
g3
NtRp1098
(dp1099
g11
g991
sg13
VITC Bookman
p1100
sg15
I600
sg16
g991
sg18
g991
sg19
g890
sg21
g993
sbag1
(g8
g3
NtRp1101
(dp1102
g11
g991
sg13
VZapfDingbats
p1103
sg15
I500
sg16
g991
sg18
g991
sg19
g891
sg21
g993
sbag1
(g8
g3
NtRp1104
(dp1105
g11
g991
sg13
VHelvetica
p1106
sg15
I500
sg16
g991
sg18
g991
sg19
g892
sg21
g993
sbag1
(g8
g3
NtRp1107
(dp1108
g11
g991
sg13
VITC Bookman
p1109
sg15
I200
sg16
g991
sg18
g991
sg19
g893
sg21
g993
sbag1
(g8
g3
NtRp1110
(dp1111
g11
g1014
sg13
VNew Century Schoolbook
p1112
sg15
I700
sg16
g991
sg18
g991
sg19
g894
sg21
g993
sbag1
(g8
g3
NtRp1113
(dp1114
g11
g991
sg13
VUtopia
p1115
sg15
I400
sg16
g991
sg18
g991
sg19
g895
sg21
g993
sbag1
(g8
g3
NtRp1116
(dp1117
g11
g991
sg13
VHelvetica
p1118
sg15
I700
sg16
g991
sg18
g991
sg19
g896
sg21
g993
sbag1
(g8
g3
NtRp1119
(dp1120
g11
g1014
sg13
VHelvetica
p1121
sg15
I200
sg16
g991
sg18
g991
sg19
g897
sg21
g993
sbag1
(g8
g3
NtRp1122
(dp1123
g11
g991
sg13
VNew Century Schoolbook
p1124
sg15
I700
sg16
g991
sg18
g991
sg19
g898
sg21
g993
sbag1
(g8
g3
NtRp1125
(dp1126
g11
g991
sg13
VHelvetica
p1127
sg15
I700
sg16
g1031
sg18
g991
sg19
g899
sg21
g993
sbag1
(g8
g3
NtRp1128
(dp1129
g11
g1014
sg13
VCourier
p1130
sg15
I500
sg16
g991
sg18
g991
sg19
g900
sg21
g993
sbag1
(g8
g3
NtRp1131
(dp1132
g11
g991
sg13
VHelvetica
p1133
sg15
I200
sg16
g991
sg18
g991
sg19
g901
sg21
g993
sbag1
(g8
g3
NtRp1134
(dp1135
g11
g991
sg13
VCourier
p1136
sg15
I700
sg16
g991
sg18
g991
sg19
g902
sg21
g993
sbag1
(g8
g3
NtRp1137
(dp1138
g11
g991
sg13
VComputer Modern
p1139
sg15
I500
sg16
g991
sg18
g991
sg19
g903
sg21
g993
sbag1
(g8
g3
NtRp1140
(dp1141
g11
g1014
sg13
VComputer Modern
p1142
sg15
I500
sg16
g991
sg18
g991
sg19
g904
sg21
g993
sbag1
(g8
g3
NtRp1143
(dp1144
g11
g1014
sg13
VITC Avant Garde Gothic
p1145
sg15
I400
sg16
g991
sg18
g991
sg19
g905
sg21
g993
sbag1
(g8
g3
NtRp1146
(dp1147
g11
g991
sg13
VTimes
p1148
sg15
I500
sg16
g991
sg18
g991
sg19
g906
sg21
g993
sbag1
(g8
g3
NtRp1149
(dp1150
g11
g1014
sg13
VCourier
p1151
sg15
I700
sg16
g991
sg18
g991
sg19
g907
sg21
g993
sbag1
(g8
g3
NtRp1152
(dp1153
g11
g1014
sg13
VCourier
p1154
sg15
I700
sg16
g991
sg18
g991
sg19
g908
sg21
g993
sbag1
(g8
g3
NtRp1155
(dp1156
g11
g991
sg13
VComputer Modern
p1157
sg15
I500
sg16
g991
sg18
g991
sg19
g909
sg21
g993
sbag1
(g8
g3
NtRp1158
(dp1159
g11
g991
sg13
VTimes
p1160
sg15
I500
sg16
g991
sg18
g991
sg19
g910
sg21
g993
sbag1
(g8
g3
NtRp1161
(dp1162
g11
g991
sg13
VNew Century Schoolbook
p1163
sg15
I500
sg16
g991
sg18
g991
sg19
g911
sg21
g993
sbag1
(g8
g3
NtRp1164
(dp1165
g11
g991
sg13
VPalatino
p1166
sg15
I700
sg16
g991
sg18
g991
sg19
g912
sg21
g993
sbag1
(g8
g3
NtRp1167
(dp1168
g11
g1014
sg13
VPalatino
p1169
sg15
I700
sg16
g991
sg18
g991
sg19
g913
sg21
g993
sbag1
(g8
g3
NtRp1170
(dp1171
g11
g1014
sg13
VTimes
p1172
sg15
I700
sg16
g991
sg18
g991
sg19
g914
sg21
g993
sbag1
(g8
g3
NtRp1173
(dp1174
g11
g991
sg13
VNimbus Roman No9 L
p1175
sg15
I700
sg16
g991
sg18
g991
sg19
g915
sg21
g993
sbag1
(g8
g3
NtRp1176
(dp1177
g11
g1014
sg13
VNimbus Sans L
p1178
sg15
I700
sg16
g991
sg18
g991
sg19
g916
sg21
g993
sbag1
(g8
g3
NtRp1179
(dp1180
g11
g991
sg13
VDingbats
p1181
sg15
I400
sg16
g991
sg18
g991
sg19
g917
sg21
g993
sbag1
(g8
g3
NtRp1182
(dp1183
g11
g1014
sg13
VCentury Schoolbook L
p1184
sg15
I400
sg16
g991
sg18
g991
sg19
g918
sg21
g993
sbag1
(g8
g3
NtRp1185
(dp1186
g11
g1014
sg13
VNimbus Roman No9 L
p1187
sg15
I400
sg16
g991
sg18
g991
sg19
g919
sg21
g993
sbag1
(g8
g3
NtRp1188
(dp1189
g11
g991
sg13
VCentury Schoolbook L
p1190
sg15
I700
sg16
g991
sg18
g991
sg19
g920
sg21
g993
sbag1
(g8
g3
NtRp1191
(dp1192
g11
g1014
sg13
VURW Bookman L
p1193
sg15
I700
sg16
g991
sg18
g991
sg19
g921
sg21
g993
sbag1
(g8
g3
NtRp1194
(dp1195
g11
g1014
sg13
VNimbus Mono L
p1196
sg15
I400
sg16
g991
sg18
g991
sg19
g922
sg21
g993
sbag1
(g8
g3
NtRp1197
(dp1198
g11
g991
sg13
VURW Antiqua T
p1199
sg15
I400
sg16
g1031
sg18
g991
sg19
g923
sg21
g993
sbag1
(g8
g3
NtRp1200
(dp1201
g11
g991
sg13
VNimbus Roman No9 L
p1202
sg15
I400
sg16
g991
sg18
g991
sg19
g924
sg21
g993
sbag1
(g8
g3
NtRp1203
(dp1204
g11
g1014
sg13
VNimbus Sans L
p1205
sg15
I700
sg16
g1031
sg18
g991
sg19
g928
sg21
g993
sbag1
(g8
g3
NtRp1206
(dp1207
g11
g991
sg13
VNimbus Mono L
p1208
sg15
I400
sg16
g991
sg18
g991
sg19
g929
sg21
g993
sbag1
(g8
g3
NtRp1209
(dp1210
g11
g991
sg13
VNimbus Mono L
p1211
sg15
I700
sg16
g991
sg18
g991
sg19
g931
sg21
g993
sbag1
(g8
g3
NtRp1212
(dp1213
g11
g991
sg13
VURW Palladio L
p1214
sg15
I500
sg16
g991
sg18
g991
sg19
g932
sg21
g993
sbag1
(g8
g3
NtRp1215
(dp1216
g11
g991
sg13
VURW Bookman L
p1217
sg15
I500
sg16
g991
sg18
g991
sg19
g933
sg21
g993
sbag1
(g8
g3
NtRp1218
(dp1219
g11
g991
sg13
VNimbus Sans L
p1220
sg15
I700
sg16
g991
sg18
g991
sg19
g934
sg21
g993
sbag1
(g8
g3
NtRp1221
(dp1222
g11
g1014
sg13
VURW Palladio L
p1223
sg15
I400
sg16
g991
sg18
g991
sg19
g936
sg21
g993
sbag1
(g8
g3
NtRp1224
(dp1225
g11
g1014
sg13
VNimbus Sans L
p1226
sg15
I400
sg16
g1031
sg18
g991
sg19
g937
sg21
g993
sbag1
(g8
g3
NtRp1227
(dp1228
g11
g1014
sg13
VCentury Schoolbook L
p1229
sg15
I700
sg16
g991
sg18
g991
sg19
g939
sg21
g993
sbag1
(g8
g3
NtRp1230
(dp1231
g11
g1014
sg13
VNimbus Mono L
p1232
sg15
I700
sg16
g991
sg18
g991
sg19
g940
sg21
g993
sbag1
(g8
g3
NtRp1233
(dp1234
g11
g991
sg13
VStandard Symbols L
p1235
sg15
I400
sg16
g991
sg18
g991
sg19
g942
sg21
g993
sbag1
(g8
g3
NtRp1236
(dp1237
g11
g1014
sg13
VURW Gothic L
p1238
sg15
I400
sg16
g991
sg18
g991
sg19
g943
sg21
g993
sbag1
(g8
g3
NtRp1239
(dp1240
g11
g1014
sg13
VURW Bookman L
p1241
sg15
I400
sg16
g991
sg18
g991
sg19
g944
sg21
g993
sbag1
(g8
g3
NtRp1242
(dp1243
g11
g991
sg13
VURW Gothic L
p1244
sg15
I600
sg16
g991
sg18
g991
sg19
g945
sg21
g993
sbag1
(g8
g3
NtRp1245
(dp1246
g11
g1014
sg13
VURW Gothic L
p1247
sg15
I600
sg16
g991
sg18
g991
sg19
g946
sg21
g993
sbag1
(g8
g3
NtRp1248
(dp1249
g11
g1014
sg13
VURW Chancery L
p1250
sg15
I500
sg16
g991
sg18
g991
sg19
g947
sg21
g993
sbag1
(g8
g3
NtRp1251
(dp1252
g11
g991
sg13
VCentury Schoolbook L
p1253
sg15
I500
sg16
g991
sg18
g991
sg19
g950
sg21
g993
sbag1
(g8
g3
NtRp1254
(dp1255
g11
g991
sg13
VURW Palladio L
p1256
sg15
I700
sg16
g991
sg18
g991
sg19
g951
sg21
g993
sbag1
(g8
g3
NtRp1257
(dp1258
g11
g991
sg13
VURW Gothic L
p1259
sg15
I400
sg16
g991
sg18
g991
sg19
g952
sg21
g993
sbag1
(g8
g3
NtRp1260
(dp1261
g11
g991
sg13
VNimbus Sans L
p1262
sg15
I400
sg16
g991
sg18
g991
sg19
g953
sg21
g993
sbag1
(g8
g3
NtRp1263
(dp1264
g11
g1014
sg13
VNimbus Sans L
p1265
sg15
I400
sg16
g991
sg18
g991
sg19
g954
sg21
g993
sbag1
(g8
g3
NtRp1266
(dp1267
g11
g991
sg13
VURW Bookman L
p1268
sg15
I700
sg16
g991
sg18
g991
sg19
g960
sg21
g993
sbag1
(g8
g3
NtRp1269
(dp1270
g11
g991
sg13
VNimbus Sans L
p1271
sg15
I400
sg16
g1031
sg18
g991
sg19
g966
sg21
g993
sbag1
(g8
g3
NtRp1272
(dp1273
g11
g1014
sg13
VURW Palladio L
p1274
sg15
I700
sg16
g991
sg18
g991
sg19
g970
sg21
g993
sbag1
(g8
g3
NtRp1275
(dp1276
g11
g1014
sg13
VNimbus Roman No9 L
p1277
sg15
I500
sg16
g991
sg18
g991
sg19
g972
sg21
g993
sbag1
(g8
g3
NtRp1278
(dp1279
g11
g991
sg13
VNimbus Sans L
p1280
sg15
I700
sg16
g1031
sg18
g991
sg19
g979
sg21
g993
sbag1
(g8
g3
NtRp1281
(dp1282
g11
g991
sg13
VURW Grotesk T
p1283
sg15
I400
sg16
g991
sg18
g991
sg19
g986
sg21
g993
sbasb.